Certificate:
    Data:
        Version: 3 (0x2)
        Serial Number: 1 (0x1)
        Signature Algorithm: sha256WithRSAEncryption
        Issuer: C=CO, ST=CUN, L=BOG, O=vlipco, CN=vlipco CA/name=EasyRSA/emailAddress=oliverjhernandez@gmail.com
        Validity
            Not Before: Dec 29 22:46:19 2019 GMT
            Not After : Dec 26 22:46:19 2029 GMT
        Subject: C=CO, ST=CUN, L=BOG, O=vlipco, CN=myapp/name=EasyRSA/emailAddress=oliverjhernandez@gmail.com
        Subject Public Key Info:
            Public Key Algorithm: rsaEncryption
                RSA Public-Key: (2048 bit)
                Modulus:
                    00:c3:fe:40:0c:1c:99:85:b0:37:b0:32:06:93:8a:
                    e3:e4:51:d5:39:f5:a6:dc:e0:9e:b0:f5:7b:27:2b:
                    28:4e:ff:81:1c:64:20:d9:04:6f:99:f1:db:3f:2d:
                    20:63:4f:91:cb:6b:d0:36:34:90:1a:39:9c:48:c8:
                    d9:2d:10:e9:a7:66:fd:f6:0d:12:c4:da:2c:a0:35:
                    28:66:65:4f:bb:36:cf:ff:c3:1f:17:0a:53:66:45:
                    cc:c1:e4:80:2e:c0:66:81:c2:2c:3c:d3:4a:35:34:
                    5e:18:56:ed:44:9c:a1:50:1f:f5:5b:a4:f3:a7:16:
                    25:d8:09:92:eb:0f:71:e5:92:52:f1:95:9d:81:da:
                    2b:98:04:c4:2c:4a:b5:26:83:48:cf:b6:be:cc:4c:
                    27:c2:a0:53:0b:39:d7:5e:2c:e0:dc:4b:ee:5c:7a:
                    92:8c:b5:ab:b8:a8:c7:14:1b:48:ed:ae:ee:79:6f:
                    ec:ba:6c:da:c7:39:6b:8b:b5:00:68:e7:50:aa:56:
                    3d:ba:db:c0:4b:1f:7a:1d:1a:07:9d:21:20:4d:91:
                    e2:96:df:30:0c:de:f3:16:19:cf:e2:7b:32:d9:0c:
                    af:90:e6:dc:b7:8b:b1:5b:5a:42:b9:d8:a8:db:e2:
                    af:a5:b5:c0:ff:c6:ee:31:8a:9c:9d:94:f2:6a:d8:
                    41:47
                Exponent: 65537 (0x10001)
        X509v3 extensions:
            X509v3 Basic Constraints: 
                CA:FALSE
            Netscape Cert Type: 
                SSL Server
            Netscape Comment: 
                Easy-RSA Generated Server Certificate
            X509v3 Subject Key Identifier: 
                27:46:65:6D:68:9C:41:25:3E:27:00:FD:1E:8E:78:53:0D:A3:61:F7
            X509v3 Authority Key Identifier: 
                keyid:4A:37:1F:C3:21:67:12:7B:DE:7D:7B:6E:66:41:ED:BF:0C:4D:BA:08
                DirName:/C=CO/ST=CUN/L=BOG/O=vlipco/CN=vlipco CA/name=EasyRSA/emailAddress=oliverjhernandez@gmail.com
                serial:38:8A:5F:A3:39:99:BC:D2:41:2D:55:15:71:16:DD:AC:33:36:2A:3E

            X509v3 Extended Key Usage: 
                TLS Web Server Authentication
            X509v3 Key Usage: 
                Digital Signature, Key Encipherment
            X509v3 Subject Alternative Name: 
                DNS:server
    Signature Algorithm: sha256WithRSAEncryption
         87:7d:d7:4d:ce:63:68:6a:9c:52:cd:50:c5:b3:ae:5b:33:43:
         f5:03:2a:97:4c:48:af:21:00:da:3b:62:c9:a1:0a:72:01:07:
         f6:5d:d7:f6:15:e3:41:46:e6:34:1c:36:99:88:12:e2:c3:78:
         be:de:27:58:b3:c3:d8:86:58:eb:d1:05:22:e4:38:56:23:72:
         23:b0:80:d9:9b:6a:86:31:d4:24:15:cf:13:9e:60:db:78:f5:
         83:5e:26:1a:b2:4f:3f:91:e8:58:a0:e4:7e:7a:87:90:eb:d6:
         2a:fb:00:76:e2:28:a3:9a:fb:1e:89:eb:05:b3:ac:26:3a:d1:
         18:5b:56:04:63:24:7c:cc:f2:a6:17:4b:51:0b:7b:64:92:2c:
         62:38:07:43:08:ae:39:12:43:2f:56:fa:13:44:79:64:5e:b8:
         d4:8a:63:bc:fd:9d:e0:98:6c:07:3b:65:0d:f0:32:54:f0:0a:
         95:6c:77:46:bb:fe:61:32:43:79:4b:2e:0a:14:1a:65:5c:86:
         ad:0b:96:4d:d8:83:a2:a4:b8:37:61:ef:33:6e:2a:48:16:a3:
         52:fb:f7:55:dd:e9:4a:a2:c2:a7:95:67:d9:db:d5:7d:80:12:
         da:f8:23:c6:1e:43:49:75:38:16:99:26:df:de:19:b0:22:2c:
         26:0e:72:8f
-----BEGIN CERTIFICATE-----
MIIFCzCCA/OgAwIBAgIBATANBgkqhkiG9w0BAQsFADCBizELMAkGA1UEBhMCQ08x
DDAKBgNVBAgTA0NVTjEMMAoGA1UEBxMDQk9HMQ8wDQYDVQQKEwZ2bGlwY28xEjAQ
BgNVBAMTCXZsaXBjbyBDQTEQMA4GA1UEKRMHRWFzeVJTQTEpMCcGCSqGSIb3DQEJ
ARYab2xpdmVyamhlcm5hbmRlekBnbWFpbC5jb20wHhcNMTkxMjI5MjI0NjE5WhcN
MjkxMjI2MjI0NjE5WjCBhzELMAkGA1UEBhMCQ08xDDAKBgNVBAgTA0NVTjEMMAoG
A1UEBxMDQk9HMQ8wDQYDVQQKEwZ2bGlwY28xDjAMBgNVBAMTBW15YXBwMRAwDgYD
VQQpEwdFYXN5UlNBMSkwJwYJKoZIhvcNAQkBFhpvbGl2ZXJqaGVybmFuZGV6QGdt
YWlsLmNvbTCCASIwDQYJKoZIhvcNAQEBBQADggEPADCCAQoCggEBAMP+QAwcmYWw
N7AyBpOK4+RR1Tn1ptzgnrD1eycrKE7/gRxkINkEb5nx2z8tIGNPkctr0DY0kBo5
nEjI2S0Q6adm/fYNEsTaLKA1KGZlT7s2z//DHxcKU2ZFzMHkgC7AZoHCLDzTSjU0
XhhW7UScoVAf9Vuk86cWJdgJkusPceWSUvGVnYHaK5gExCxKtSaDSM+2vsxMJ8Kg
Uws5114s4NxL7lx6koy1q7ioxxQbSO2u7nlv7Lps2sc5a4u1AGjnUKpWPbrbwEsf
eh0aB50hIE2R4pbfMAze8xYZz+J7MtkMr5Dm3LeLsVtaQrnYqNvir6W1wP/G7jGK
nJ2U8mrYQUcCAwEAAaOCAXowggF2MAkGA1UdEwQCMAAwEQYJYIZIAYb4QgEBBAQD
AgZAMDQGCWCGSAGG+EIBDQQnFiVFYXN5LVJTQSBHZW5lcmF0ZWQgU2VydmVyIENl
cnRpZmljYXRlMB0GA1UdDgQWBBQnRmVtaJxBJT4nAP0ejnhTDaNh9zCBywYDVR0j
BIHDMIHAgBRKNx/DIWcSe959e25mQe2/DE26CKGBkaSBjjCBizELMAkGA1UEBhMC
Q08xDDAKBgNVBAgTA0NVTjEMMAoGA1UEBxMDQk9HMQ8wDQYDVQQKEwZ2bGlwY28x
EjAQBgNVBAMTCXZsaXBjbyBDQTEQMA4GA1UEKRMHRWFzeVJTQTEpMCcGCSqGSIb3
DQEJARYab2xpdmVyamhlcm5hbmRlekBnbWFpbC5jb22CFDiKX6M5mbzSQS1VFXEW
3awzNio+MBMGA1UdJQQMMAoGCCsGAQUFBwMBMAsGA1UdDwQEAwIFoDARBgNVHREE
CjAIggZzZXJ2ZXIwDQYJKoZIhvcNAQELBQADggEBAId9103OY2hqnFLNUMWzrlsz
Q/UDKpdMSK8hANo7YsmhCnIBB/Zd1/YV40FG5jQcNpmIEuLDeL7eJ1izw9iGWOvR
BSLkOFYjciOwgNmbaoYx1CQVzxOeYNt49YNeJhqyTz+R6Fig5H56h5Dr1ir7AHbi
KKOa+x6J6wWzrCY60RhbVgRjJHzM8qYXS1ELe2SSLGI4B0MIrjkSQy9W+hNEeWRe
uNSKY7z9neCYbAc7ZQ3wMlTwCpVsd0a7/mEyQ3lLLgoUGmVchq0Llk3Yg6KkuDdh
7zNuKkgWo1L791Xd6UqiwqeVZ9nb1X2AEtr4I8YeQ0l1OBaZJt/eGbAiLCYOco8=
-----END CERTIFICATE-----
